target datalayout = "e-m:e-p270:32:32-p271:32:32-p272:64:64-i64:64-i128:128-f80:128-n8:16:32:64-S128"
target triple = "x86_64-pc-linux-gnu"

%"class.std::vector.75" = type { %"struct.std::_Vector_base.76" }
%"struct.std::_Vector_base.76" = type { %"struct.std::_Vector_base<unsigned int, std::allocator<unsigned int>>::_Vector_impl" }
%"struct.std::_Vector_base<unsigned int, std::allocator<unsigned int>>::_Vector_impl" = type { %"struct.std::_Vector_base<unsigned int, std::allocator<unsigned int>>::_Vector_impl_data" }
%"struct.std::_Vector_base<unsigned int, std::allocator<unsigned int>>::_Vector_impl_data" = type { ptr, ptr, ptr }
%"class.std::optional" = type { %"struct.std::_Optional_base" }
%"struct.std::_Optional_base" = type { %"struct.std::_Optional_payload" }
%"struct.std::_Optional_payload" = type { %"struct.std::_Optional_payload_base.base", [3 x i8] }
%"struct.std::_Optional_payload_base.base" = type <{ %"union.std::_Optional_payload_base<unsigned int>::_Storage", i8 }>
%"union.std::_Optional_payload_base<unsigned int>::_Storage" = type { i32 }
%"class.WasmEdge::AST::TagType" = type { i32, ptr }
%"class.WasmEdge::AST::SubType" = type <{ i8, [7 x i8], %"class.std::vector.75", %"class.WasmEdge::AST::CompositeType", %"class.std::optional.146", %"class.std::optional", [4 x i8] }>
%"class.WasmEdge::AST::CompositeType" = type { i8, [7 x i8], %"class.std::variant" }
%"class.std::variant" = type { %"struct.std::__detail::__variant::_Variant_base.base", [7 x i8] }
%"struct.std::__detail::__variant::_Variant_base.base" = type { %"struct.std::__detail::__variant::_Move_assign_base.base" }
%"struct.std::__detail::__variant::_Move_assign_base.base" = type { %"struct.std::__detail::__variant::_Copy_assign_base.base" }
%"struct.std::__detail::__variant::_Copy_assign_base.base" = type { %"struct.std::__detail::__variant::_Move_ctor_base.base" }
%"struct.std::__detail::__variant::_Move_ctor_base.base" = type { %"struct.std::__detail::__variant::_Copy_ctor_base.base" }
%"struct.std::__detail::__variant::_Copy_ctor_base.base" = type { %"struct.std::__detail::__variant::_Variant_storage.base" }
%"struct.std::__detail::__variant::_Variant_storage.base" = type { %"union.std::__detail::__variant::_Variadic_union", i8 }
%"union.std::__detail::__variant::_Variadic_union" = type { %"union.std::__detail::__variant::_Variadic_union.139" }
%"union.std::__detail::__variant::_Variadic_union.139" = type { %"struct.std::__detail::__variant::_Uninitialized.140" }
%"struct.std::__detail::__variant::_Uninitialized.140" = type { %"struct.__gnu_cxx::__aligned_membuf.141" }
%"struct.__gnu_cxx::__aligned_membuf.141" = type { [72 x i8] }
%"class.std::optional.146" = type { %"struct.std::_Optional_base.147" }
%"struct.std::_Optional_base.147" = type { %"struct.std::_Optional_payload.149" }
%"struct.std::_Optional_payload.149" = type { %"struct.std::_Optional_payload_base.base.151", [3 x i8] }
%"struct.std::_Optional_payload_base.base.151" = type <{ %"union.std::_Optional_payload_base<WasmEdge::AST::SubType::RecInfo>::_Storage", i8 }>
%"union.std::_Optional_payload_base<WasmEdge::AST::SubType::RecInfo>::_Storage" = type { %"struct.WasmEdge::AST::SubType::RecInfo" }
%"struct.WasmEdge::AST::SubType::RecInfo" = type { i32, i32 }
%"struct.std::__detail::__variant::_Variant_storage" = type { %"union.std::__detail::__variant::_Variadic_union", i8, [7 x i8] }

; Function Attrs: mustprogress nounwind uwtable
define linkonce_odr hidden noundef ptr @_ZNK9__gnu_cxx16__aligned_membufIN8WasmEdge3AST12FunctionTypeEE7_M_addrEv(ptr noundef nonnull align 8 dereferenceable(72) %0) #0 comdat align 2 {
  %2 = alloca ptr, align 8
  store ptr %0, ptr %2, align 8
  %3 = load ptr, ptr %2, align 8
  %4 = getelementptr inbounds %"struct.__gnu_cxx::__aligned_membuf.141", ptr %3, i32 0, i32 0
  ret ptr %4
}

; Function Attrs: mustprogress nounwind uwtable
define linkonce_odr hidden noundef ptr @_ZNK9__gnu_cxx16__aligned_membufIN8WasmEdge3AST12FunctionTypeEE6_M_ptrEv(ptr noundef nonnull align 8 dereferenceable(72) %0) #0 comdat align 2 {
  %2 = alloca ptr, align 8
  store ptr %0, ptr %2, align 8
  %3 = load ptr, ptr %2, align 8
  %4 = call noundef ptr @_ZNK9__gnu_cxx16__aligned_membufIN8WasmEdge3AST12FunctionTypeEE7_M_addrEv(ptr noundef nonnull align 8 dereferenceable(72) %3) #18
  ret ptr %4
}

; Function Attrs: mustprogress nounwind uwtable
define linkonce_odr hidden noundef nonnull align 8 dereferenceable(72) ptr @_ZNKRSt8__detail9__variant14_UninitializedIN8WasmEdge3AST12FunctionTypeELb0EE6_M_getEv(ptr noundef nonnull align 8 dereferenceable(72) %0) #0 comdat align 2 {
  %2 = alloca ptr, align 8
  store ptr %0, ptr %2, align 8
  %3 = load ptr, ptr %2, align 8
  %4 = getelementptr inbounds %"struct.std::__detail::__variant::_Uninitialized.140", ptr %3, i32 0, i32 0
  %5 = call noundef ptr @_ZNK9__gnu_cxx16__aligned_membufIN8WasmEdge3AST12FunctionTypeEE6_M_ptrEv(ptr noundef nonnull align 8 dereferenceable(72) %4) #18
  ret ptr %5
}

; Function Attrs: mustprogress nounwind uwtable
define linkonce_odr noundef nonnull align 8 dereferenceable(72) ptr @_ZNSt8__detail9__variant7__get_nILm1ERKNS0_15_Variadic_unionIJSt6vectorIN8WasmEdge3AST9FieldTypeESaIS6_EENS5_12FunctionTypeEEEEEEDcOT0_(ptr noundef nonnull align 8 dereferenceable(72) %0) #0 comdat {
  %2 = alloca ptr, align 8
  store ptr %0, ptr %2, align 8
  %3 = load ptr, ptr %2, align 8
  %4 = call noundef nonnull align 8 dereferenceable(72) ptr @_ZNKRSt8__detail9__variant14_UninitializedIN8WasmEdge3AST12FunctionTypeELb0EE6_M_getEv(ptr noundef nonnull align 8 dereferenceable(72) %3) #18
  ret ptr %4
}

; Function Attrs: mustprogress nounwind uwtable
define linkonce_odr noundef nonnull align 8 dereferenceable(72) ptr @_ZNSt8__detail9__variant5__getILm1ERKSt7variantIJSt6vectorIN8WasmEdge3AST9FieldTypeESaIS6_EENS5_12FunctionTypeEEEEEDcOT0_(ptr noundef nonnull align 8 dereferenceable(73) %0) #0 comdat {
  %2 = alloca ptr, align 8
  store ptr %0, ptr %2, align 8
  %3 = load ptr, ptr %2, align 8
  %4 = getelementptr inbounds %"struct.std::__detail::__variant::_Variant_storage", ptr %3, i32 0, i32 0
  %5 = call noundef nonnull align 8 dereferenceable(72) ptr @_ZNSt8__detail9__variant7__get_nILm1ERKNS0_15_Variadic_unionIJSt6vectorIN8WasmEdge3AST9FieldTypeESaIS6_EENS5_12FunctionTypeEEEEEEDcOT0_(ptr noundef nonnull align 8 dereferenceable(72) %4) #18
  ret ptr %5
}

; Function Attrs: mustprogress nounwind uwtable
define linkonce_odr hidden noundef i64 @_ZNKSt7variantIJSt6vectorIN8WasmEdge3AST9FieldTypeESaIS3_EENS2_12FunctionTypeEEE5indexEv(ptr noundef nonnull align 8 dereferenceable(73) %0) #0 comdat align 2 {
  %2 = alloca ptr, align 8
  store ptr %0, ptr %2, align 8
  %3 = load ptr, ptr %2, align 8
  %4 = getelementptr inbounds %"struct.std::__detail::__variant::_Variant_storage", ptr %3, i32 0, i32 1
  %5 = load i8, ptr %4, align 8
  %6 = sext i8 %5 to i64
  ret i64 %6
}

; Function Attrs: mustprogress nounwind uwtable
define linkonce_odr noundef ptr @_ZSt6get_ifILm1EJSt6vectorIN8WasmEdge3AST9FieldTypeESaIS3_EENS2_12FunctionTypeEEENSt11add_pointerIKNSt19variant_alternativeIXT_ESt7variantIJDpT0_EEE4typeEE4typeEPKSC_(ptr noundef %0) #0 comdat {
  %2 = alloca ptr, align 8
  %3 = alloca ptr, align 8
  store ptr %0, ptr %3, align 8
  %4 = load ptr, ptr %3, align 8
  %5 = icmp ne ptr %4, null
  br i1 %5, label %6, label %13

6:                                                ; preds = %1
  %7 = load ptr, ptr %3, align 8
  %8 = call noundef i64 @_ZNKSt7variantIJSt6vectorIN8WasmEdge3AST9FieldTypeESaIS3_EENS2_12FunctionTypeEEE5indexEv(ptr noundef nonnull align 8 dereferenceable(73) %7) #18
  %9 = icmp eq i64 %8, 1
  br i1 %9, label %10, label %13

10:                                               ; preds = %6
  %11 = load ptr, ptr %3, align 8
  %12 = call noundef nonnull align 8 dereferenceable(72) ptr @_ZNSt8__detail9__variant5__getILm1ERKSt7variantIJSt6vectorIN8WasmEdge3AST9FieldTypeESaIS6_EENS5_12FunctionTypeEEEEEDcOT0_(ptr noundef nonnull align 8 dereferenceable(73) %11) #18
  store ptr %12, ptr %2, align 8
  br label %14

13:                                               ; preds = %6, %1
  store ptr null, ptr %2, align 8
  br label %14

14:                                               ; preds = %13, %10
  %15 = load ptr, ptr %2, align 8
  ret ptr %15
}

; Function Attrs: mustprogress nounwind uwtable
define linkonce_odr noundef ptr @_ZSt6get_ifIN8WasmEdge3AST12FunctionTypeEJSt6vectorINS1_9FieldTypeESaIS4_EES2_EENSt11add_pointerIKT_E4typeEPKSt7variantIJDpT0_EE(ptr noundef %0) #0 comdat {
  %2 = alloca ptr, align 8
  %3 = alloca i64, align 8
  store ptr %0, ptr %2, align 8
  store i64 1, ptr %3, align 8
  %4 = load ptr, ptr %2, align 8
  %5 = call noundef ptr @_ZSt6get_ifILm1EJSt6vectorIN8WasmEdge3AST9FieldTypeESaIS3_EENS2_12FunctionTypeEEENSt11add_pointerIKNSt19variant_alternativeIXT_ESt7variantIJDpT0_EEE4typeEE4typeEPKSC_(ptr noundef %4) #18
  ret ptr %5
}

; Function Attrs: mustprogress nounwind uwtable
define internal noundef ptr @_ZN12_GLOBAL__N_113toFuncTypeCxtEPKN8WasmEdge3AST12FunctionTypeE(ptr noundef %0) #0 {
  %2 = alloca ptr, align 8
  store ptr %0, ptr %2, align 8
  %3 = load ptr, ptr %2, align 8
  ret ptr %3
}

; Function Attrs: mustprogress nounwind uwtable
define linkonce_odr hidden noundef nonnull align 8 dereferenceable(72) ptr @_ZNK8WasmEdge3AST13CompositeType11getFuncTypeEv(ptr noundef nonnull align 8 dereferenceable(88) %0) #0 comdat align 2 {
  %2 = alloca ptr, align 8
  store ptr %0, ptr %2, align 8
  %3 = load ptr, ptr %2, align 8
  %4 = getelementptr inbounds %"class.WasmEdge::AST::CompositeType", ptr %3, i32 0, i32 2
  %5 = call noundef ptr @_ZSt6get_ifIN8WasmEdge3AST12FunctionTypeEJSt6vectorINS1_9FieldTypeESaIS4_EES2_EENSt11add_pointerIKT_E4typeEPKSt7variantIJDpT0_EE(ptr noundef %4) #18
  ret ptr %5
}

; Function Attrs: mustprogress nounwind uwtable
define linkonce_odr hidden noundef zeroext i1 @_ZNK8WasmEdge3AST13CompositeType6isFuncEv(ptr noundef nonnull align 8 dereferenceable(88) %0) #0 comdat align 2 {
  %2 = alloca ptr, align 8
  store ptr %0, ptr %2, align 8
  %3 = load ptr, ptr %2, align 8
  %4 = getelementptr inbounds %"class.WasmEdge::AST::CompositeType", ptr %3, i32 0, i32 0
  %5 = load i8, ptr %4, align 8
  %6 = icmp eq i8 %5, 96
  ret i1 %6
}

; Function Attrs: mustprogress nounwind uwtable
define linkonce_odr hidden noundef nonnull align 8 dereferenceable(88) ptr @_ZNK8WasmEdge3AST7SubType16getCompositeTypeEv(ptr noundef nonnull align 8 dereferenceable(140) %0) #0 comdat align 2 {
  %2 = alloca ptr, align 8
  store ptr %0, ptr %2, align 8
  %3 = load ptr, ptr %2, align 8
  %4 = getelementptr inbounds %"class.WasmEdge::AST::SubType", ptr %3, i32 0, i32 3
  ret ptr %4
}

; Function Attrs: mustprogress nounwind uwtable
define linkonce_odr hidden noundef nonnull align 8 dereferenceable(140) ptr @_ZNK8WasmEdge3AST7TagType10getDefTypeEv(ptr noundef nonnull align 8 dereferenceable(16) %0) #0 comdat align 2 {
  %2 = alloca ptr, align 8
  store ptr %0, ptr %2, align 8
  %3 = load ptr, ptr %2, align 8
  %4 = getelementptr inbounds %"class.WasmEdge::AST::TagType", ptr %3, i32 0, i32 1
  %5 = load ptr, ptr %4, align 8
  ret ptr %5
}

; Function Attrs: mustprogress nounwind uwtable
define internal noundef ptr @_ZN12_GLOBAL__N_114fromTagTypeCxtEPK23WasmEdge_TagTypeContext(ptr noundef %0) #0 {
  %2 = alloca ptr, align 8
  store ptr %0, ptr %2, align 8
  %3 = load ptr, ptr %2, align 8
  ret ptr %3
}

; Function Attrs: mustprogress nounwind uwtable
define ptr @WasmEdge_TagTypeGetFunctionType(ptr noundef %0) #0 {
  %2 = alloca ptr, align 8
  %3 = alloca ptr, align 8
  %4 = alloca ptr, align 8
  store ptr %0, ptr %3, align 8
  %5 = load ptr, ptr %3, align 8
  %6 = icmp ne ptr %5, null
  br i1 %6, label %7, label %19

7:                                                ; preds = %1
  %8 = load ptr, ptr %3, align 8
  %9 = call noundef ptr @_ZN12_GLOBAL__N_114fromTagTypeCxtEPK23WasmEdge_TagTypeContext(ptr noundef %8) #18
  %10 = call noundef nonnull align 8 dereferenceable(140) ptr @_ZNK8WasmEdge3AST7TagType10getDefTypeEv(ptr noundef nonnull align 8 dereferenceable(16) %9) #18
  %11 = call noundef nonnull align 8 dereferenceable(88) ptr @_ZNK8WasmEdge3AST7SubType16getCompositeTypeEv(ptr noundef nonnull align 8 dereferenceable(140) %10) #18
  store ptr %11, ptr %4, align 8
  %12 = load ptr, ptr %4, align 8
  %13 = call noundef zeroext i1 @_ZNK8WasmEdge3AST13CompositeType6isFuncEv(ptr noundef nonnull align 8 dereferenceable(88) %12) #18
  br i1 %13, label %14, label %18

14:                                               ; preds = %7
  %15 = load ptr, ptr %4, align 8
  %16 = call noundef nonnull align 8 dereferenceable(72) ptr @_ZNK8WasmEdge3AST13CompositeType11getFuncTypeEv(ptr noundef nonnull align 8 dereferenceable(88) %15) #18
  %17 = call noundef ptr @_ZN12_GLOBAL__N_113toFuncTypeCxtEPKN8WasmEdge3AST12FunctionTypeE(ptr noundef %16) #18
  store ptr %17, ptr %2, align 8
  br label %20

18:                                               ; preds = %7
  br label %19

19:                                               ; preds = %18, %1
  store ptr null, ptr %2, align 8
  br label %20

20:                                               ; preds = %19, %14
  %21 = load ptr, ptr %2, align 8
  ret ptr %21
}