; Function Attrs: mustprogress nofree norecurse nosync nounwind willreturn memory(read, inaccessiblemem: none) uwtable
define ptr @WasmEdge_TagTypeGetFunctionType(ptr noundef readonly %0) local_unnamed_addr #16 {
  %.not = icmp eq ptr %0, null
  br i1 %.not, label %13, label %2

2:                                                ; preds = %1
  %3 = getelementptr inbounds i8, ptr %0, i64 8
  %4 = load ptr, ptr %3, align 8
  %5 = getelementptr inbounds i8, ptr %4, i64 32
  %6 = load i8, ptr %5, align 8
  %7 = icmp eq i8 %6, 96
  br i1 %7, label %8, label %13

8:                                                ; preds = %2
  %9 = getelementptr inbounds i8, ptr %4, i64 40
  %10 = getelementptr inbounds i8, ptr %4, i64 112
  %11 = load i8, ptr %10, align 8
  %12 = icmp eq i8 %11, 1
  %spec.select.i.i.i = select i1 %12, ptr %9, ptr null
  br label %13

13:                                               ; preds = %1, %2, %8
  %.0 = phi ptr [ %spec.select.i.i.i, %8 ], [ null, %2 ], [ null, %1 ]
  ret ptr %.0
}